target datalayout = "e-m:e-p270:32:32-p271:32:32-p272:64:64-i64:64-i128:128-f80:128-n8:16:32:64-S128"
target triple = "x86_64-pc-linux-gnu"

%struct.Str_Mux_t_ = type { i32, i32, i32, i32, [3 x %struct.Str_Edg_t_] }
%struct.Str_Edg_t_ = type { i32, i32, i32, i32 }

; Function Attrs: inlinehint nounwind uwtable
define internal i32 @Abc_MaxInt(i32 noundef %0, i32 noundef %1) #3 {
  %3 = alloca i32, align 4
  %4 = alloca i32, align 4
  store i32 %0, ptr %3, align 4, !tbaa !39
  store i32 %1, ptr %4, align 4, !tbaa !39
  %5 = load i32, ptr %3, align 4, !tbaa !39
  %6 = load i32, ptr %4, align 4, !tbaa !39
  %7 = icmp sgt i32 %5, %6
  br i1 %7, label %8, label %10

8:                                                ; preds = %2
  %9 = load i32, ptr %3, align 4, !tbaa !39
  br label %12

10:                                               ; preds = %2
  %11 = load i32, ptr %4, align 4, !tbaa !39
  br label %12

12:                                               ; preds = %10, %8
  %13 = phi i32 [ %9, %8 ], [ %11, %10 ]
  ret i32 %13
}

; Function Attrs: inlinehint nounwind uwtable
define internal i32 @Str_Delay3(i32 noundef %0, i32 noundef %1, i32 noundef %2, i32 noundef %3) #3 {
  %5 = alloca i32, align 4
  %6 = alloca i32, align 4
  %7 = alloca i32, align 4
  %8 = alloca i32, align 4
  %9 = alloca i32, align 4
  %10 = alloca i32, align 4
  store i32 %0, ptr %5, align 4, !tbaa !39
  store i32 %1, ptr %6, align 4, !tbaa !39
  store i32 %2, ptr %7, align 4, !tbaa !39
  store i32 %3, ptr %8, align 4, !tbaa !39
  call void @llvm.lifetime.start.p0(i64 4, ptr %9) #13
  call void @llvm.lifetime.start.p0(i64 4, ptr %10) #13
  %11 = load i32, ptr %5, align 4, !tbaa !39
  %12 = ashr i32 %11, 4
  %13 = load i32, ptr %6, align 4, !tbaa !39
  %14 = ashr i32 %13, 4
  %15 = call i32 @Abc_MaxInt(i32 noundef %12, i32 noundef %14)
  %16 = load i32, ptr %7, align 4, !tbaa !39
  %17 = ashr i32 %16, 4
  %18 = call i32 @Abc_MaxInt(i32 noundef %15, i32 noundef %17)
  store i32 %18, ptr %10, align 4, !tbaa !39
  %19 = load i32, ptr %10, align 4, !tbaa !39
  %20 = load i32, ptr %5, align 4, !tbaa !39
  %21 = ashr i32 %20, 4
  %22 = icmp eq i32 %19, %21
  br i1 %22, label %23, label %26

23:                                               ; preds = %4
  %24 = load i32, ptr %5, align 4, !tbaa !39
  %25 = and i32 %24, 15
  br label %27

26:                                               ; preds = %4
  br label %27

27:                                               ; preds = %26, %23
  %28 = phi i32 [ %25, %23 ], [ 1, %26 ]
  store i32 %28, ptr %9, align 4, !tbaa !39
  %29 = load i32, ptr %10, align 4, !tbaa !39
  %30 = load i32, ptr %6, align 4, !tbaa !39
  %31 = ashr i32 %30, 4
  %32 = icmp eq i32 %29, %31
  br i1 %32, label %33, label %36

33:                                               ; preds = %27
  %34 = load i32, ptr %6, align 4, !tbaa !39
  %35 = and i32 %34, 15
  br label %37

36:                                               ; preds = %27
  br label %37

37:                                               ; preds = %36, %33
  %38 = phi i32 [ %35, %33 ], [ 1, %36 ]
  %39 = load i32, ptr %9, align 4, !tbaa !39
  %40 = add nsw i32 %39, %38
  store i32 %40, ptr %9, align 4, !tbaa !39
  %41 = load i32, ptr %10, align 4, !tbaa !39
  %42 = load i32, ptr %7, align 4, !tbaa !39
  %43 = ashr i32 %42, 4
  %44 = icmp eq i32 %41, %43
  br i1 %44, label %45, label %48

45:                                               ; preds = %37
  %46 = load i32, ptr %7, align 4, !tbaa !39
  %47 = and i32 %46, 15
  br label %49

48:                                               ; preds = %37
  br label %49

49:                                               ; preds = %48, %45
  %50 = phi i32 [ %47, %45 ], [ 1, %48 ]
  %51 = load i32, ptr %9, align 4, !tbaa !39
  %52 = add nsw i32 %51, %50
  store i32 %52, ptr %9, align 4, !tbaa !39
  %53 = load i32, ptr %10, align 4, !tbaa !39
  %54 = shl i32 %53, 4
  %55 = load i32, ptr %9, align 4, !tbaa !39
  %56 = load i32, ptr %8, align 4, !tbaa !39
  %57 = icmp sgt i32 %55, %56
  br i1 %57, label %58, label %59

58:                                               ; preds = %49
  br label %61

59:                                               ; preds = %49
  %60 = load i32, ptr %9, align 4, !tbaa !39
  br label %61

61:                                               ; preds = %59, %58
  %62 = phi i32 [ 19, %58 ], [ %60, %59 ]
  %63 = add nsw i32 %54, %62
  call void @llvm.lifetime.end.p0(i64 4, ptr %10) #13
  call void @llvm.lifetime.end.p0(i64 4, ptr %9) #13
  ret i32 %63
}

; Function Attrs: inlinehint nounwind uwtable
define internal ptr @Str_MuxFanin(ptr noundef %0, i32 noundef %1) #3 {
  %3 = alloca ptr, align 8
  %4 = alloca i32, align 4
  store ptr %0, ptr %3, align 8, !tbaa !153
  store i32 %1, ptr %4, align 4, !tbaa !39
  %5 = load ptr, ptr %3, align 8, !tbaa !153
  %6 = load ptr, ptr %3, align 8, !tbaa !153
  %7 = getelementptr inbounds nuw %struct.Str_Mux_t_, ptr %6, i32 0, i32 0
  %8 = load i32, ptr %7, align 4, !tbaa !159
  %9 = sext i32 %8 to i64
  %10 = sub i64 0, %9
  %11 = getelementptr inbounds %struct.Str_Mux_t_, ptr %5, i64 %10
  %12 = load ptr, ptr %3, align 8, !tbaa !153
  %13 = getelementptr inbounds nuw %struct.Str_Mux_t_, ptr %12, i32 0, i32 4
  %14 = load i32, ptr %4, align 4, !tbaa !39
  %15 = sext i32 %14 to i64
  %16 = getelementptr inbounds [3 x %struct.Str_Edg_t_], ptr %13, i64 0, i64 %15
  %17 = getelementptr inbounds nuw %struct.Str_Edg_t_, ptr %16, i32 0, i32 0
  %18 = load i32, ptr %17, align 4, !tbaa !155
  %19 = sext i32 %18 to i64
  %20 = getelementptr inbounds %struct.Str_Mux_t_, ptr %11, i64 %19
  ret ptr %20
}

; Function Attrs: nounwind uwtable
define i32 @Str_MuxDelayEdge_rec(ptr noundef %0, i32 noundef %1) #0 {
  %3 = alloca ptr, align 8
  %4 = alloca i32, align 4
  %5 = alloca ptr, align 8
  store ptr %0, ptr %3, align 8, !tbaa !153
  store i32 %1, ptr %4, align 4, !tbaa !39
  %6 = load ptr, ptr %3, align 8, !tbaa !153
  %7 = getelementptr inbounds nuw %struct.Str_Mux_t_, ptr %6, i32 0, i32 4
  %8 = load i32, ptr %4, align 4, !tbaa !39
  %9 = sext i32 %8 to i64
  %10 = getelementptr inbounds [3 x %struct.Str_Edg_t_], ptr %7, i64 0, i64 %9
  %11 = getelementptr inbounds nuw %struct.Str_Edg_t_, ptr %10, i32 0, i32 0
  %12 = load i32, ptr %11, align 4, !tbaa !155
  %13 = icmp sgt i32 %12, 0
  br i1 %13, label %14, label %47

14:                                               ; preds = %2
  call void @llvm.lifetime.start.p0(i64 8, ptr %5) #13
  %15 = load ptr, ptr %3, align 8, !tbaa !153
  %16 = load i32, ptr %4, align 4, !tbaa !39
  %17 = call ptr @Str_MuxFanin(ptr noundef %15, i32 noundef %16)
  store ptr %17, ptr %5, align 8, !tbaa !153
  %18 = load ptr, ptr %5, align 8, !tbaa !153
  %19 = call i32 @Str_MuxDelayEdge_rec(ptr noundef %18, i32 noundef 0)
  %20 = load ptr, ptr %5, align 8, !tbaa !153
  %21 = call i32 @Str_MuxDelayEdge_rec(ptr noundef %20, i32 noundef 1)
  %22 = load ptr, ptr %5, align 8, !tbaa !153
  %23 = getelementptr inbounds nuw %struct.Str_Mux_t_, ptr %22, i32 0, i32 4
  %24 = getelementptr inbounds [3 x %struct.Str_Edg_t_], ptr %23, i64 0, i64 0
  %25 = getelementptr inbounds nuw %struct.Str_Edg_t_, ptr %24, i32 0, i32 2
  %26 = load i32, ptr %25, align 4, !tbaa !157
  %27 = load ptr, ptr %5, align 8, !tbaa !153
  %28 = getelementptr inbounds nuw %struct.Str_Mux_t_, ptr %27, i32 0, i32 4
  %29 = getelementptr inbounds [3 x %struct.Str_Edg_t_], ptr %28, i64 0, i64 1
  %30 = getelementptr inbounds nuw %struct.Str_Edg_t_, ptr %29, i32 0, i32 2
  %31 = load i32, ptr %30, align 4, !tbaa !157
  %32 = load ptr, ptr %5, align 8, !tbaa !153
  %33 = getelementptr inbounds nuw %struct.Str_Mux_t_, ptr %32, i32 0, i32 4
  %34 = getelementptr inbounds [3 x %struct.Str_Edg_t_], ptr %33, i64 0, i64 2
  %35 = getelementptr inbounds nuw %struct.Str_Edg_t_, ptr %34, i32 0, i32 2
  %36 = load i32, ptr %35, align 4, !tbaa !157
  %37 = load ptr, ptr %5, align 8, !tbaa !153
  %38 = getelementptr inbounds nuw %struct.Str_Mux_t_, ptr %37, i32 0, i32 3
  %39 = load i32, ptr %38, align 4, !tbaa !161
  %40 = call i32 @Str_Delay3(i32 noundef %26, i32 noundef %31, i32 noundef %36, i32 noundef %39)
  %41 = load ptr, ptr %3, align 8, !tbaa !153
  %42 = getelementptr inbounds nuw %struct.Str_Mux_t_, ptr %41, i32 0, i32 4
  %43 = load i32, ptr %4, align 4, !tbaa !39
  %44 = sext i32 %43 to i64
  %45 = getelementptr inbounds [3 x %struct.Str_Edg_t_], ptr %42, i64 0, i64 %44
  %46 = getelementptr inbounds nuw %struct.Str_Edg_t_, ptr %45, i32 0, i32 2
  store i32 %40, ptr %46, align 4, !tbaa !157
  call void @llvm.lifetime.end.p0(i64 8, ptr %5) #13
  br label %47

47:                                               ; preds = %14, %2
  %48 = load ptr, ptr %3, align 8, !tbaa !153
  %49 = getelementptr inbounds nuw %struct.Str_Mux_t_, ptr %48, i32 0, i32 4
  %50 = load i32, ptr %4, align 4, !tbaa !39
  %51 = sext i32 %50 to i64
  %52 = getelementptr inbounds [3 x %struct.Str_Edg_t_], ptr %49, i64 0, i64 %51
  %53 = getelementptr inbounds nuw %struct.Str_Edg_t_, ptr %52, i32 0, i32 2
  %54 = load i32, ptr %53, align 4, !tbaa !157
  ret i32 %54
}