; Function Attrs: nofree nosync nounwind memory(argmem: readwrite) uwtable
define i32 @Str_MuxDelayEdge_rec(ptr noundef %0, i32 noundef %1) local_unnamed_addr #11 {
  %3 = getelementptr inbounds nuw i8, ptr %0, i64 16
  %4 = sext i32 %1 to i64
  %5 = getelementptr inbounds [3 x %struct.Str_Edg_t_], ptr %3, i64 0, i64 %4
  %6 = load i32, ptr %5, align 4, !tbaa !136
  %7 = icmp sgt i32 %6, 0
  br i1 %7, label %8, label %._crit_edge

._crit_edge:                                      ; preds = %2
  %.phi.trans.insert = getelementptr inbounds nuw i8, ptr %5, i64 8
  %.pre = load i32, ptr %.phi.trans.insert, align 4, !tbaa !138
  br label %common.ret

common.ret:                                       ; preds = %._crit_edge, %8
  %common.ret.op = phi i32 [ %43, %8 ], [ %.pre, %._crit_edge ]
  ret i32 %common.ret.op

8:                                                ; preds = %2
  %9 = load i32, ptr %0, align 4, !tbaa !139
  %10 = sext i32 %9 to i64
  %11 = sub nsw i64 0, %10
  %12 = getelementptr inbounds %struct.Str_Mux_t_, ptr %0, i64 %11
  %13 = zext nneg i32 %6 to i64
  %14 = getelementptr inbounds nuw %struct.Str_Mux_t_, ptr %12, i64 %13
  %15 = tail call i32 @Str_MuxDelayEdge_rec(ptr noundef nonnull %14, i32 noundef 0)
  %16 = tail call i32 @Str_MuxDelayEdge_rec(ptr noundef nonnull %14, i32 noundef 1)
  %17 = getelementptr inbounds nuw i8, ptr %14, i64 24
  %18 = load i32, ptr %17, align 4, !tbaa !138
  %19 = getelementptr inbounds nuw i8, ptr %14, i64 40
  %20 = load i32, ptr %19, align 4, !tbaa !138
  %21 = getelementptr inbounds nuw i8, ptr %14, i64 56
  %22 = load i32, ptr %21, align 4, !tbaa !138
  %23 = getelementptr inbounds nuw i8, ptr %14, i64 12
  %24 = load i32, ptr %23, align 4, !tbaa !142
  %25 = ashr i32 %18, 4
  %26 = ashr i32 %20, 4
  %27 = tail call noundef i32 @llvm.smax.i32(i32 %25, i32 %26)
  %28 = ashr i32 %22, 4
  %29 = tail call noundef i32 @llvm.smax.i32(i32 %27, i32 %28)
  %30 = icmp eq i32 %29, %25
  %31 = and i32 %18, 15
  %32 = select i1 %30, i32 %31, i32 1
  %33 = icmp eq i32 %29, %26
  %34 = and i32 %20, 15
  %35 = select i1 %33, i32 %34, i32 1
  %.not.i = icmp slt i32 %28, %27
  %36 = and i32 %22, 15
  %37 = select i1 %.not.i, i32 1, i32 %36
  %38 = add nuw nsw i32 %35, %37
  %39 = add nuw nsw i32 %38, %32
  %40 = shl nsw i32 %29, 4
  %41 = icmp sgt i32 %39, %24
  %42 = select i1 %41, i32 19, i32 %39
  %43 = add nsw i32 %42, %40
  %44 = getelementptr inbounds nuw i8, ptr %5, i64 8
  store i32 %43, ptr %44, align 4, !tbaa !138
  br label %common.ret
}